; ModuleID = 'source-C-CXX/5/4228.cpp'
source_filename = "source-C-CXX/5/4228.cpp"
target datalayout = "e-m:e-p270:32:32-p271:32:32-p272:64:64-i64:64-f80:128-n8:16:32:64-S128"
target triple = "x86_64-pc-linux-gnu"

%"class.std::ios_base::Init" = type { i8 }
%"class.std::basic_istream" = type { i32 (...)**, i64, %"class.std::basic_ios" }
%"class.std::basic_ios" = type { %"class.std::ios_base", %"class.std::basic_ostream"*, i8, i8, %"class.std::basic_streambuf"*, %"class.std::ctype"*, %"class.std::num_put"*, %"class.std::num_get"* }
%"class.std::ios_base" = type { i32 (...)**, i64, i64, i32, i32, i32, %"struct.std::ios_base::_Callback_list"*, %"struct.std::ios_base::_Words", [8 x %"struct.std::ios_base::_Words"], i32, %"struct.std::ios_base::_Words"*, %"class.std::locale" }
%"struct.std::ios_base::_Callback_list" = type { %"struct.std::ios_base::_Callback_list"*, void (i32, %"class.std::ios_base"*, i32)*, i32, i32 }
%"struct.std::ios_base::_Words" = type { i8*, i64 }
%"class.std::locale" = type { %"class.std::locale::_Impl"* }
%"class.std::locale::_Impl" = type { i32, %"class.std::locale::facet"**, i64, %"class.std::locale::facet"**, i8** }
%"class.std::locale::facet" = type <{ i32 (...)**, i32, [4 x i8] }>
%"class.std::basic_ostream" = type { i32 (...)**, %"class.std::basic_ios" }
%"class.std::basic_streambuf" = type { i32 (...)**, i8*, i8*, i8*, i8*, i8*, i8*, %"class.std::locale" }
%"class.std::ctype" = type <{ %"class.std::locale::facet.base", [4 x i8], %struct.__locale_struct*, i8, [7 x i8], i32*, i32*, i16*, i8, [256 x i8], [256 x i8], i8, [6 x i8] }>
%"class.std::locale::facet.base" = type <{ i32 (...)**, i32 }>
%struct.__locale_struct = type { [13 x %struct.__locale_data*], i16*, i32*, i32*, [13 x i8*] }
%struct.__locale_data = type opaque
%"class.std::num_put" = type { %"class.std::locale::facet.base", [4 x i8] }
%"class.std::num_get" = type { %"class.std::locale::facet.base", [4 x i8] }

@_ZStL8__ioinit = internal global %"class.std::ios_base::Init" zeroinitializer, align 1
@__dso_handle = external hidden global i8
@_ZSt3cin = external global %"class.std::basic_istream", align 8
@_ZSt4cout = external global %"class.std::basic_ostream", align 8
@llvm.global_ctors = appending global [1 x { i32, void ()*, i8* }] [{ i32, void ()*, i8* } { i32 65535, void ()* @_GLOBAL__sub_I_4228.cpp, i8* null }]

declare void @_ZNSt8ios_base4InitC1Ev(%"class.std::ios_base::Init"* nonnull align 1 dereferenceable(1)) unnamed_addr #0

; Function Attrs: nounwind
declare void @_ZNSt8ios_base4InitD1Ev(%"class.std::ios_base::Init"* nonnull align 1 dereferenceable(1)) unnamed_addr #1

; Function Attrs: nofree nounwind
declare i32 @__cxa_atexit(void (i8*)*, i8*, i8*) local_unnamed_addr #2

; Function Attrs: mustprogress norecurse sspstrong uwtable
define dso_local i32 @main() local_unnamed_addr #3 {
  %1 = alloca i32, align 4
  %2 = alloca i32, align 4
  %3 = alloca i32, align 4
  %4 = alloca [100 x [100 x i32]], align 16
  %5 = bitcast i32* %1 to i8*
  call void @llvm.lifetime.start.p0i8(i64 4, i8* nonnull %5) #8
  %6 = bitcast i32* %2 to i8*
  call void @llvm.lifetime.start.p0i8(i64 4, i8* nonnull %6) #8
  %7 = bitcast i32* %3 to i8*
  call void @llvm.lifetime.start.p0i8(i64 4, i8* nonnull %7) #8
  %8 = bitcast [100 x [100 x i32]]* %4 to i8*
  call void @llvm.lifetime.start.p0i8(i64 40000, i8* nonnull %8) #8
  %9 = call nonnull align 8 dereferenceable(16) %"class.std::basic_istream"* @_ZNSirsERi(%"class.std::basic_istream"* nonnull align 8 dereferenceable(16) @_ZSt3cin, i32* nonnull align 4 dereferenceable(4) %1)
  %10 = load i32, i32* %1, align 4, !tbaa !5
  %11 = icmp slt i32 %10, 1
  br i1 %11, label %175, label %12

12:                                               ; preds = %0, %168
  %13 = phi i32 [ %172, %168 ], [ 1, %0 ]
  %14 = call nonnull align 8 dereferenceable(16) %"class.std::basic_istream"* @_ZNSirsERi(%"class.std::basic_istream"* nonnull align 8 dereferenceable(16) @_ZSt3cin, i32* nonnull align 4 dereferenceable(4) %2)
  %15 = call nonnull align 8 dereferenceable(16) %"class.std::basic_istream"* @_ZNSirsERi(%"class.std::basic_istream"* nonnull align 8 dereferenceable(16) %14, i32* nonnull align 4 dereferenceable(4) %3)
  %16 = load i32, i32* %2, align 4, !tbaa !5
  %17 = icmp sgt i32 %16, 0
  br i1 %17, label %18, label %138

18:                                               ; preds = %12
  %19 = load i32, i32* %3, align 4, !tbaa !5
  %20 = icmp sgt i32 %19, 0
  br i1 %20, label %112, label %21

21:                                               ; preds = %131, %18
  %22 = phi i32 [ %19, %18 ], [ %133, %131 ]
  %23 = phi i32 [ 0, %18 ], [ %134, %131 ]
  %24 = phi i32 [ %16, %18 ], [ %132, %131 ]
  %25 = icmp sgt i32 %24, 2
  %26 = icmp sgt i32 %22, 2
  %27 = select i1 %25, i1 %26, i1 false
  br i1 %27, label %28, label %138

28:                                               ; preds = %21
  %29 = add nsw i32 %22, -1
  %30 = add nsw i32 %24, -1
  %31 = zext i32 %30 to i64
  %32 = zext i32 %29 to i64
  %33 = add nsw i64 %32, -1
  %34 = add nsw i64 %32, -9
  %35 = lshr i64 %34, 3
  %36 = add nuw nsw i64 %35, 1
  %37 = icmp ult i64 %33, 8
  %38 = and i64 %33, -8
  %39 = or i64 %38, 1
  %40 = and i64 %36, 1
  %41 = icmp ult i64 %34, 8
  %42 = and i64 %36, 4611686018427387902
  %43 = icmp eq i64 %40, 0
  %44 = icmp eq i64 %33, %38
  br label %45

45:                                               ; preds = %28, %108
  %46 = phi i64 [ 1, %28 ], [ %110, %108 ]
  %47 = phi i32 [ 0, %28 ], [ %109, %108 ]
  br i1 %37, label %97, label %48

48:                                               ; preds = %45
  %49 = insertelement <4 x i32> <i32 poison, i32 0, i32 0, i32 0>, i32 %47, i32 0
  br i1 %41, label %76, label %50

50:                                               ; preds = %48, %50
  %51 = phi i64 [ %73, %50 ], [ 0, %48 ]
  %52 = phi <4 x i32> [ %71, %50 ], [ %49, %48 ]
  %53 = phi <4 x i32> [ %72, %50 ], [ zeroinitializer, %48 ]
  %54 = phi i64 [ %74, %50 ], [ %42, %48 ]
  %55 = or i64 %51, 1
  %56 = getelementptr inbounds [100 x [100 x i32]], [100 x [100 x i32]]* %4, i64 0, i64 %46, i64 %55
  %57 = bitcast i32* %56 to <4 x i32>*
  %58 = load <4 x i32>, <4 x i32>* %57, align 4, !tbaa !5
  %59 = getelementptr inbounds i32, i32* %56, i64 4
  %60 = bitcast i32* %59 to <4 x i32>*
  %61 = load <4 x i32>, <4 x i32>* %60, align 4, !tbaa !5
  %62 = add <4 x i32> %58, %52
  %63 = add <4 x i32> %61, %53
  %64 = or i64 %51, 9
  %65 = getelementptr inbounds [100 x [100 x i32]], [100 x [100 x i32]]* %4, i64 0, i64 %46, i64 %64
  %66 = bitcast i32* %65 to <4 x i32>*
  %67 = load <4 x i32>, <4 x i32>* %66, align 4, !tbaa !5
  %68 = getelementptr inbounds i32, i32* %65, i64 4
  %69 = bitcast i32* %68 to <4 x i32>*
  %70 = load <4 x i32>, <4 x i32>* %69, align 4, !tbaa !5
  %71 = add <4 x i32> %67, %62
  %72 = add <4 x i32> %70, %63
  %73 = add nuw i64 %51, 16
  %74 = add i64 %54, -2
  %75 = icmp eq i64 %74, 0
  br i1 %75, label %76, label %50, !llvm.loop !9

76:                                               ; preds = %50, %48
  %77 = phi <4 x i32> [ undef, %48 ], [ %71, %50 ]
  %78 = phi <4 x i32> [ undef, %48 ], [ %72, %50 ]
  %79 = phi i64 [ 0, %48 ], [ %73, %50 ]
  %80 = phi <4 x i32> [ %49, %48 ], [ %71, %50 ]
  %81 = phi <4 x i32> [ zeroinitializer, %48 ], [ %72, %50 ]
  br i1 %43, label %92, label %82

82:                                               ; preds = %76
  %83 = or i64 %79, 1
  %84 = getelementptr inbounds [100 x [100 x i32]], [100 x [100 x i32]]* %4, i64 0, i64 %46, i64 %83
  %85 = getelementptr inbounds i32, i32* %84, i64 4
  %86 = bitcast i32* %85 to <4 x i32>*
  %87 = load <4 x i32>, <4 x i32>* %86, align 4, !tbaa !5
  %88 = add <4 x i32> %87, %81
  %89 = bitcast i32* %84 to <4 x i32>*
  %90 = load <4 x i32>, <4 x i32>* %89, align 4, !tbaa !5
  %91 = add <4 x i32> %90, %80
  br label %92

92:                                               ; preds = %76, %82
  %93 = phi <4 x i32> [ %77, %76 ], [ %91, %82 ]
  %94 = phi <4 x i32> [ %78, %76 ], [ %88, %82 ]
  %95 = add <4 x i32> %94, %93
  %96 = call i32 @llvm.vector.reduce.add.v4i32(<4 x i32> %95)
  br i1 %44, label %108, label %97

97:                                               ; preds = %45, %92
  %98 = phi i64 [ 1, %45 ], [ %39, %92 ]
  %99 = phi i32 [ %47, %45 ], [ %96, %92 ]
  br label %100

100:                                              ; preds = %97, %100
  %101 = phi i64 [ %106, %100 ], [ %98, %97 ]
  %102 = phi i32 [ %105, %100 ], [ %99, %97 ]
  %103 = getelementptr inbounds [100 x [100 x i32]], [100 x [100 x i32]]* %4, i64 0, i64 %46, i64 %101
  %104 = load i32, i32* %103, align 4, !tbaa !5
  %105 = add nsw i32 %104, %102
  %106 = add nuw nsw i64 %101, 1
  %107 = icmp eq i64 %106, %32
  br i1 %107, label %108, label %100, !llvm.loop !12

108:                                              ; preds = %100, %92
  %109 = phi i32 [ %96, %92 ], [ %105, %100 ]
  %110 = add nuw nsw i64 %46, 1
  %111 = icmp eq i64 %110, %31
  br i1 %111, label %138, label %45, !llvm.loop !14

112:                                              ; preds = %18, %131
  %113 = phi i32 [ %132, %131 ], [ %16, %18 ]
  %114 = phi i32 [ %133, %131 ], [ %19, %18 ]
  %115 = phi i64 [ %135, %131 ], [ 0, %18 ]
  %116 = phi i32 [ %134, %131 ], [ 0, %18 ]
  %117 = icmp sgt i32 %114, 0
  br i1 %117, label %118, label %131

118:                                              ; preds = %112, %118
  %119 = phi i64 [ %125, %118 ], [ 0, %112 ]
  %120 = phi i32 [ %124, %118 ], [ %116, %112 ]
  %121 = getelementptr inbounds [100 x [100 x i32]], [100 x [100 x i32]]* %4, i64 0, i64 %115, i64 %119
  %122 = call nonnull align 8 dereferenceable(16) %"class.std::basic_istream"* @_ZNSirsERi(%"class.std::basic_istream"* nonnull align 8 dereferenceable(16) @_ZSt3cin, i32* nonnull align 4 dereferenceable(4) %121)
  %123 = load i32, i32* %121, align 4, !tbaa !5
  %124 = add nsw i32 %123, %120
  %125 = add nuw nsw i64 %119, 1
  %126 = load i32, i32* %3, align 4, !tbaa !5
  %127 = sext i32 %126 to i64
  %128 = icmp slt i64 %125, %127
  br i1 %128, label %118, label %129, !llvm.loop !15

129:                                              ; preds = %118
  %130 = load i32, i32* %2, align 4, !tbaa !5
  br label %131

131:                                              ; preds = %129, %112
  %132 = phi i32 [ %113, %112 ], [ %130, %129 ]
  %133 = phi i32 [ %114, %112 ], [ %126, %129 ]
  %134 = phi i32 [ %116, %112 ], [ %124, %129 ]
  %135 = add nuw nsw i64 %115, 1
  %136 = sext i32 %132 to i64
  %137 = icmp slt i64 %135, %136
  br i1 %137, label %112, label %21, !llvm.loop !16

138:                                              ; preds = %108, %12, %21
  %139 = phi i32 [ %23, %21 ], [ 0, %12 ], [ %23, %108 ]
  %140 = phi i32 [ 0, %21 ], [ 0, %12 ], [ %109, %108 ]
  %141 = sub nsw i32 %139, %140
  %142 = call nonnull align 8 dereferenceable(8) %"class.std::basic_ostream"* @_ZNSolsEi(%"class.std::basic_ostream"* nonnull align 8 dereferenceable(8) @_ZSt4cout, i32 %141)
  %143 = bitcast %"class.std::basic_ostream"* %142 to i8**
  %144 = load i8*, i8** %143, align 8, !tbaa !18
  %145 = getelementptr i8, i8* %144, i64 -24
  %146 = bitcast i8* %145 to i64*
  %147 = load i64, i64* %146, align 8
  %148 = bitcast %"class.std::basic_ostream"* %142 to i8*
  %149 = add nsw i64 %147, 240
  %150 = getelementptr inbounds i8, i8* %148, i64 %149
  %151 = bitcast i8* %150 to %"class.std::ctype"**
  %152 = load %"class.std::ctype"*, %"class.std::ctype"** %151, align 8, !tbaa !20
  %153 = icmp eq %"class.std::ctype"* %152, null
  br i1 %153, label %154, label %155

154:                                              ; preds = %138
  call void @_ZSt16__throw_bad_castv() #9
  unreachable

155:                                              ; preds = %138
  %156 = getelementptr inbounds %"class.std::ctype", %"class.std::ctype"* %152, i64 0, i32 8
  %157 = load i8, i8* %156, align 8, !tbaa !24
  %158 = icmp eq i8 %157, 0
  br i1 %158, label %162, label %159

159:                                              ; preds = %155
  %160 = getelementptr inbounds %"class.std::ctype", %"class.std::ctype"* %152, i64 0, i32 9, i64 10
  %161 = load i8, i8* %160, align 1, !tbaa !26
  br label %168

162:                                              ; preds = %155
  call void @_ZNKSt5ctypeIcE13_M_widen_initEv(%"class.std::ctype"* nonnull align 8 dereferenceable(570) %152)
  %163 = bitcast %"class.std::ctype"* %152 to i8 (%"class.std::ctype"*, i8)***
  %164 = load i8 (%"class.std::ctype"*, i8)**, i8 (%"class.std::ctype"*, i8)*** %163, align 8, !tbaa !18
  %165 = getelementptr inbounds i8 (%"class.std::ctype"*, i8)*, i8 (%"class.std::ctype"*, i8)** %164, i64 6
  %166 = load i8 (%"class.std::ctype"*, i8)*, i8 (%"class.std::ctype"*, i8)** %165, align 8
  %167 = call signext i8 %166(%"class.std::ctype"* nonnull align 8 dereferenceable(570) %152, i8 signext 10)
  br label %168

168:                                              ; preds = %159, %162
  %169 = phi i8 [ %161, %159 ], [ %167, %162 ]
  %170 = call nonnull align 8 dereferenceable(8) %"class.std::basic_ostream"* @_ZNSo3putEc(%"class.std::basic_ostream"* nonnull align 8 dereferenceable(8) %142, i8 signext %169)
  %171 = call nonnull align 8 dereferenceable(8) %"class.std::basic_ostream"* @_ZNSo5flushEv(%"class.std::basic_ostream"* nonnull align 8 dereferenceable(8) %170)
  %172 = add nuw nsw i32 %13, 1
  %173 = load i32, i32* %1, align 4, !tbaa !5
  %174 = icmp slt i32 %13, %173
  br i1 %174, label %12, label %175, !llvm.loop !27

175:                                              ; preds = %168, %0
  call void @llvm.lifetime.end.p0i8(i64 40000, i8* nonnull %8) #8
  call void @llvm.lifetime.end.p0i8(i64 4, i8* nonnull %7) #8
  call void @llvm.lifetime.end.p0i8(i64 4, i8* nonnull %6) #8
  call void @llvm.lifetime.end.p0i8(i64 4, i8* nonnull %5) #8
  ret i32 0
}

; Function Attrs: argmemonly mustprogress nofree nosync nounwind willreturn
declare void @llvm.lifetime.start.p0i8(i64 immarg, i8* nocapture) #4

declare nonnull align 8 dereferenceable(16) %"class.std::basic_istream"* @_ZNSirsERi(%"class.std::basic_istream"* nonnull align 8 dereferenceable(16), i32* nonnull align 4 dereferenceable(4)) local_unnamed_addr #0

declare nonnull align 8 dereferenceable(8) %"class.std::basic_ostream"* @_ZNSolsEi(%"class.std::basic_ostream"* nonnull align 8 dereferenceable(8), i32) local_unnamed_addr #0

; Function Attrs: argmemonly mustprogress nofree nosync nounwind willreturn
declare void @llvm.lifetime.end.p0i8(i64 immarg, i8* nocapture) #4

declare nonnull align 8 dereferenceable(8) %"class.std::basic_ostream"* @_ZNSo3putEc(%"class.std::basic_ostream"* nonnull align 8 dereferenceable(8), i8 signext) local_unnamed_addr #0

declare nonnull align 8 dereferenceable(8) %"class.std::basic_ostream"* @_ZNSo5flushEv(%"class.std::basic_ostream"* nonnull align 8 dereferenceable(8)) local_unnamed_addr #0

; Function Attrs: noreturn
declare void @_ZSt16__throw_bad_castv() local_unnamed_addr #5

declare void @_ZNKSt5ctypeIcE13_M_widen_initEv(%"class.std::ctype"* nonnull align 8 dereferenceable(570)) local_unnamed_addr #0

; Function Attrs: sspstrong uwtable
define internal void @_GLOBAL__sub_I_4228.cpp() #6 section ".text.startup" {
  tail call void @_ZNSt8ios_base4InitC1Ev(%"class.std::ios_base::Init"* nonnull align 1 dereferenceable(1) @_ZStL8__ioinit)
  %1 = tail call i32 @__cxa_atexit(void (i8*)* bitcast (void (%"class.std::ios_base::Init"*)* @_ZNSt8ios_base4InitD1Ev to void (i8*)*), i8* getelementptr inbounds (%"class.std::ios_base::Init", %"class.std::ios_base::Init"* @_ZStL8__ioinit, i64 0, i32 0), i8* nonnull @__dso_handle) #8
  ret void
}

; Function Attrs: nofree nosync nounwind readnone willreturn
declare i32 @llvm.vector.reduce.add.v4i32(<4 x i32>) #7


!llvm.module.flags = !{!0, !1, !2, !3}
!llvm.ident = !{!4}

!0 = !{i32 1, !"wchar_size", i32 4}
!1 = !{i32 7, !"PIC Level", i32 2}
!2 = !{i32 7, !"PIE Level", i32 2}
!3 = !{i32 7, !"uwtable", i32 1}
!4 = !{!"clang version 13.0.0"}
!5 = !{!6, !6, i64 0}
!6 = !{!"int", !7, i64 0}
!7 = !{!"omnipotent char", !8, i64 0}
!8 = !{!"Simple C++ TBAA"}
!9 = distinct !{!9, !10, !11}
!10 = !{!"llvm.loop.mustprogress"}
!11 = !{!"llvm.loop.isvectorized", i32 1}
!12 = distinct !{!12, !10, !13, !11}
!13 = !{!"llvm.loop.unroll.runtime.disable"}
!14 = distinct !{!14, !10}
!15 = distinct !{!15, !10}
!16 = distinct !{!16, !10, !17}
!17 = !{!"llvm.loop.unswitch.partial.disable"}
!18 = !{!19, !19, i64 0}
!19 = !{!"vtable pointer", !8, i64 0}
!20 = !{!21, !22, i64 240}
!21 = !{!"_ZTSSt9basic_iosIcSt11char_traitsIcEE", !22, i64 216, !7, i64 224, !23, i64 225, !22, i64 232, !22, i64 240, !22, i64 248, !22, i64 256}
!22 = !{!"any pointer", !7, i64 0}
!23 = !{!"bool", !7, i64 0}
!24 = !{!25, !7, i64 56}
!25 = !{!"_ZTSSt5ctypeIcE", !22, i64 16, !23, i64 24, !22, i64 32, !22, i64 40, !22, i64 48, !7, i64 56, !7, i64 57, !7, i64 313, !7, i64 569}
!26 = !{!7, !7, i64 0}
!27 = distinct !{!27, !10}
